target datalayout = "e-m:e-p270:32:32-p271:32:32-p272:64:64-i64:64-i128:128-f80:128-n8:16:32:64-S128"
target triple = "x86_64-pc-linux-gnu"

%struct.PlatformTarget = type { ptr, i32, ptr, ptr, i32, i32, i32, i32, i32, i32, i32, [7 x %struct.AlignData], [7 x %struct.AlignData], [7 x %struct.AlignData], i32, i16, %union.anon.90, i8, i8, i8, i8, i8, i8, i8, i8, i8, i8, %struct.AlignData, i32, i32, i32, i32, i32, i32, i32, i32, i32, i32, i32, i32, i32, i32, i32, i32, ptr }
%union.anon.90 = type { %struct.anon.92 }
%struct.anon.92 = type { %struct.X86Features, i32, i32 }
%struct.X86Features = type { [2 x i64], ptr }
%struct.AlignData = type { i32, i32 }
%struct.ScratchBuf = type { [65536 x i8], i32 }
%struct.BEValue = type { i8, i32, ptr, ptr, ptr }
%struct.Expr_ = type { ptr, %union.SourceSpan, i16, %union.anon.29 }
%union.SourceSpan = type { i64 }
%union.anon.29 = type { %struct.ExprAnySwitch }
%struct.ExprAnySwitch = type { i8, %union.anon.31 }
%union.anon.31 = type { %struct.anon.32 }
%struct.anon.32 = type { ptr, %union.SourceSpan, ptr }
%struct.ExprCall = type { %union.anon.33, i32, i16, ptr, %union.anon.34 }
%union.anon.33 = type { i32 }
%union.anon.34 = type { ptr }
%struct.GenContext_ = type { i8, ptr, ptr, ptr, ptr, ptr, ptr, ptr, ptr, ptr, ptr, ptr, ptr, ptr, ptr, ptr, ptr, ptr, ptr, ptr, ptr, ptr, ptr, ptr, ptr, ptr, ptr, ptr, ptr, ptr, ptr, ptr, ptr, %struct.anon.85, i32, i32, %struct.DebugContext, ptr, ptr, ptr, %struct.BEValue, i8, %union.SourceSpan, ptr, ptr, ptr, ptr }
%struct.anon.85 = type { ptr, ptr, ptr }
%struct.DebugContext = type { i16, ptr, ptr, %struct.DebugFile_, ptr, ptr, ptr, ptr }
%struct.DebugFile_ = type { i16, ptr }
%struct.VHeader_ = type { i32, i32, [0 x i8] }

@platform_target = external global %struct.PlatformTarget, align 8
@.str = private unnamed_addr constant [36 x i8] c"FATAL ERROR %s -> in %s @ in %s:%d \00", align 1
@.str.2 = private unnamed_addr constant [122 x i8] c"generated/home/dtcxzyw/WorkSpace/Projects/compilers/llvm-opt-benchmark/bench/c3c/c3c/src/compiler/llvm_codegen_builtins.c\00", align 1
@.str.3 = private unnamed_addr constant [22 x i8] c"Should be unreachable\00", align 1
@type_uptr = external global ptr, align 8
@.str.16 = private unnamed_addr constant [6 x i8] c"={x0}\00", align 1
@llvm_emit_syscall.regs = internal global [7 x ptr] [ptr @.str.17, ptr @.str.18, ptr @.str.19, ptr @.str.20, ptr @.str.21, ptr @.str.22, ptr @.str.23], align 16
@llvm_emit_syscall.regs.24 = internal global [7 x ptr] [ptr @.str.25, ptr @.str.18, ptr @.str.19, ptr @.str.20, ptr @.str.21, ptr @.str.22, ptr @.str.23], align 16
@.str.26 = private unnamed_addr constant [10 x i8] c"svc #0x80\00", align 1
@.str.27 = private unnamed_addr constant [7 x i8] c"={eax}\00", align 1
@llvm_emit_syscall.regs.28 = internal global [6 x ptr] [ptr @.str.29, ptr @.str.30, ptr @.str.31, ptr @.str.32, ptr @.str.33, ptr @.str.34], align 16
@.str.35 = private unnamed_addr constant [4 x i8] c",rm\00", align 1
@.str.36 = private unnamed_addr constant [78 x i8] c"push %[arg6]\0Apush %%ebp\0Amov 4(%%esp), %%ebp\0Aint $0x80\0Apop %%ebp\0Aadd $4, %%esp\00", align 1
@.str.37 = private unnamed_addr constant [10 x i8] c"int $0x80\00", align 1
@.str.38 = private unnamed_addr constant [7 x i8] c"={rax}\00", align 1
@llvm_emit_syscall.regs.39 = internal global [7 x ptr] [ptr @.str.40, ptr @.str.41, ptr @.str.42, ptr @.str.43, ptr @.str.44, ptr @.str.45, ptr @.str.46], align 16
@.str.47 = private unnamed_addr constant [25 x i8] c",~{rcx},~{r11},~{memory}\00", align 1
@.str.48 = private unnamed_addr constant [8 x i8] c"syscall\00", align 1
@__func__.llvm_emit_syscall = private unnamed_addr constant [18 x i8] c"llvm_emit_syscall\00", align 1
@.str.49 = private unnamed_addr constant [3 x i8] c",{\00", align 1
@.str.50 = private unnamed_addr constant [2 x i8] c"}\00", align 1
@scratch_buffer = external global %struct.ScratchBuf, align 4

; Function Attrs: nounwind uwtable
define internal ptr @llvm_syscall_asm(ptr noundef %0, ptr noundef %1, ptr noundef %2) #0 {
  %4 = alloca ptr, align 8
  %5 = alloca ptr, align 8
  %6 = alloca ptr, align 8
  store ptr %0, ptr %4, align 8
  store ptr %1, ptr %5, align 8
  store ptr %2, ptr %6, align 8
  %7 = load ptr, ptr %5, align 8
  %8 = load ptr, ptr %6, align 8
  %9 = load ptr, ptr %6, align 8
  %10 = call i64 @strlen(ptr noundef %9) #10
  %11 = call ptr @scratch_buffer_to_string()
  %12 = load i32, ptr getelementptr inbounds (%struct.ScratchBuf, ptr @scratch_buffer, i32 0, i32 1), align 4
  %13 = zext i32 %12 to i64
  %14 = call ptr @LLVMGetInlineAsm(ptr noundef %7, ptr noundef %8, i64 noundef %10, ptr noundef %11, i64 noundef %13, i32 noundef 1, i32 noundef 1, i32 noundef 0, i32 noundef 0)
  ret ptr %14
}

; Function Attrs: nounwind uwtable
define internal void @llvm_syscall_write_regs_to_scratch(ptr noundef %0, i32 noundef %1) #0 {
  %3 = alloca ptr, align 8
  %4 = alloca i32, align 4
  %5 = alloca i32, align 4
  store ptr %0, ptr %3, align 8
  store i32 %1, ptr %4, align 4
  store i32 0, ptr %5, align 4
  br label %6

6:                                                ; preds = %16, %2
  %7 = load i32, ptr %5, align 4
  %8 = load i32, ptr %4, align 4
  %9 = icmp ult i32 %7, %8
  br i1 %9, label %10, label %19

10:                                               ; preds = %6
  call void @scratch_buffer_append(ptr noundef @.str.49)
  %11 = load ptr, ptr %3, align 8
  %12 = load i32, ptr %5, align 4
  %13 = zext i32 %12 to i64
  %14 = getelementptr inbounds ptr, ptr %11, i64 %13
  %15 = load ptr, ptr %14, align 8
  call void @scratch_buffer_append(ptr noundef %15)
  call void @scratch_buffer_append(ptr noundef @.str.50)
  br label %16

16:                                               ; preds = %10
  %17 = load i32, ptr %5, align 4
  %18 = add i32 %17, 1
  store i32 %18, ptr %5, align 4
  br label %6, !llvm.loop !35

19:                                               ; preds = %6
  ret void
}

; Function Attrs: nounwind uwtable
define internal void @llvm_emit_syscall(ptr noundef %0, ptr noundef %1, ptr noundef %2) #0 {
  %4 = alloca i32, align 4
  %5 = alloca ptr, align 8
  %6 = alloca ptr, align 8
  %7 = alloca ptr, align 8
  %8 = alloca ptr, align 8
  %9 = alloca ptr, align 8
  %10 = alloca i32, align 4
  %11 = alloca [10 x ptr], align 16
  %12 = alloca [10 x ptr], align 16
  %13 = alloca ptr, align 8
  %14 = alloca ptr, align 8
  %15 = alloca i32, align 4
  %16 = alloca ptr, align 8
  %17 = alloca ptr, align 8
  %18 = alloca ptr, align 8
  %19 = alloca ptr, align 8
  store ptr %0, ptr %7, align 8
  store ptr %1, ptr %8, align 8
  store ptr %2, ptr %9, align 8
  %20 = load ptr, ptr %9, align 8
  %21 = getelementptr inbounds %struct.Expr_, ptr %20, i32 0, i32 3
  %22 = getelementptr inbounds %struct.ExprCall, ptr %21, i32 0, i32 3
  %23 = load ptr, ptr %22, align 8
  store ptr %23, ptr %5, align 8
  %24 = load ptr, ptr %5, align 8
  %25 = icmp ne ptr %24, null
  br i1 %25, label %27, label %26

26:                                               ; preds = %3
  store i32 0, ptr %4, align 4
  br label %32

27:                                               ; preds = %3
  %28 = load ptr, ptr %5, align 8
  store ptr %28, ptr %6, align 8
  %29 = load ptr, ptr %6, align 8
  %30 = getelementptr inbounds %struct.VHeader_, ptr %29, i64 -1
  %31 = load i32, ptr %30, align 4
  store i32 %31, ptr %4, align 4
  br label %32

32:                                               ; preds = %27, %26
  %33 = load i32, ptr %4, align 4
  store i32 %33, ptr %10, align 4
  %34 = load ptr, ptr %9, align 8
  %35 = getelementptr inbounds %struct.Expr_, ptr %34, i32 0, i32 3
  %36 = getelementptr inbounds %struct.ExprCall, ptr %35, i32 0, i32 3
  %37 = load ptr, ptr %36, align 8
  store ptr %37, ptr %13, align 8
  %38 = load ptr, ptr %7, align 8
  %39 = load ptr, ptr @type_uptr, align 8
  %40 = call ptr @llvm_get_type(ptr noundef %38, ptr noundef %39)
  store ptr %40, ptr %14, align 8
  store i32 0, ptr %15, align 4
  br label %41

41:                                               ; preds = %65, %32
  %42 = load i32, ptr %15, align 4
  %43 = load i32, ptr %10, align 4
  %44 = icmp ult i32 %42, %43
  br i1 %44, label %45, label %68

45:                                               ; preds = %41
  %46 = load ptr, ptr %7, align 8
  %47 = load ptr, ptr %8, align 8
  %48 = load ptr, ptr %13, align 8
  %49 = load i32, ptr %15, align 4
  %50 = zext i32 %49 to i64
  %51 = getelementptr inbounds ptr, ptr %48, i64 %50
  %52 = load ptr, ptr %51, align 8
  call void @llvm_emit_expr(ptr noundef %46, ptr noundef %47, ptr noundef %52)
  %53 = load ptr, ptr %7, align 8
  %54 = load ptr, ptr %8, align 8
  call void @llvm_value_rvalue(ptr noundef %53, ptr noundef %54)
  %55 = load ptr, ptr %8, align 8
  %56 = getelementptr inbounds %struct.BEValue, ptr %55, i32 0, i32 3
  %57 = load ptr, ptr %56, align 8
  %58 = load i32, ptr %15, align 4
  %59 = zext i32 %58 to i64
  %60 = getelementptr inbounds [10 x ptr], ptr %11, i64 0, i64 %59
  store ptr %57, ptr %60, align 8
  %61 = load ptr, ptr %14, align 8
  %62 = load i32, ptr %15, align 4
  %63 = zext i32 %62 to i64
  %64 = getelementptr inbounds [10 x ptr], ptr %12, i64 0, i64 %63
  store ptr %61, ptr %64, align 8
  br label %65

65:                                               ; preds = %45
  %66 = load i32, ptr %15, align 4
  %67 = add i32 %66, 1
  store i32 %67, ptr %15, align 4
  br label %41, !llvm.loop !28

68:                                               ; preds = %41
  %69 = load ptr, ptr %14, align 8
  %70 = getelementptr inbounds [10 x ptr], ptr %12, i64 0, i64 0
  %71 = load i32, ptr %10, align 4
  %72 = call ptr @LLVMFunctionType(ptr noundef %69, ptr noundef %70, i32 noundef %71, i32 noundef 0)
  store ptr %72, ptr %16, align 8
  call void @scratch_buffer_clear()
  %73 = load i32, ptr getelementptr inbounds (%struct.PlatformTarget, ptr @platform_target, i32 0, i32 4), align 8
  switch i32 %73, label %110 [
    i32 3, label %74
    i32 4, label %74
    i32 31, label %85
    i32 32, label %104
    i32 5, label %109
    i32 8, label %109
    i32 9, label %109
    i32 25, label %109
    i32 37, label %109
    i32 38, label %109
    i32 39, label %109
    i32 40, label %109
    i32 41, label %109
    i32 44, label %109
    i32 45, label %109
    i32 49, label %109
    i32 50, label %109
    i32 36, label %109
    i32 11, label %109
    i32 12, label %109
    i32 14, label %109
    i32 13, label %109
    i32 7, label %109
    i32 35, label %109
    i32 34, label %109
    i32 15, label %109
    i32 26, label %109
    i32 28, label %109
    i32 27, label %109
    i32 46, label %109
    i32 10, label %109
    i32 20, label %109
    i32 19, label %109
    i32 23, label %109
    i32 24, label %109
    i32 33, label %109
    i32 6, label %109
    i32 43, label %109
    i32 42, label %109
  ]

74:                                               ; preds = %68, %68
  call void @scratch_buffer_append(ptr noundef @.str.16)
  %75 = load i32, ptr getelementptr inbounds (%struct.PlatformTarget, ptr @platform_target, i32 0, i32 5), align 4
  %76 = call zeroext i1 @os_is_apple(i32 noundef %75)
  br i1 %76, label %77, label %79

77:                                               ; preds = %74
  %78 = load i32, ptr %10, align 4
  call void @llvm_syscall_write_regs_to_scratch(ptr noundef @llvm_emit_syscall.regs, i32 noundef %78)
  br label %81

79:                                               ; preds = %74
  %80 = load i32, ptr %10, align 4
  call void @llvm_syscall_write_regs_to_scratch(ptr noundef @llvm_emit_syscall.regs.24, i32 noundef %80)
  br label %81

81:                                               ; preds = %79, %77
  %82 = load ptr, ptr %7, align 8
  %83 = load ptr, ptr %16, align 8
  %84 = call ptr @llvm_syscall_asm(ptr noundef %82, ptr noundef %83, ptr noundef @.str.26)
  store ptr %84, ptr %17, align 8
  br label %113

85:                                               ; preds = %68
  call void @scratch_buffer_append(ptr noundef @.str.27)
  %86 = load i32, ptr %10, align 4
  %87 = icmp ult i32 %86, 6
  br i1 %87, label %88, label %90

88:                                               ; preds = %85
  %89 = load i32, ptr %10, align 4
  br label %91

90:                                               ; preds = %85
  br label %91

91:                                               ; preds = %90, %88
  %92 = phi i32 [ %89, %88 ], [ 6, %90 ]
  call void @llvm_syscall_write_regs_to_scratch(ptr noundef @llvm_emit_syscall.regs.28, i32 noundef %92)
  %93 = load i32, ptr %10, align 4
  %94 = icmp eq i32 %93, 7
  br i1 %94, label %95, label %100

95:                                               ; preds = %91
  call void @scratch_buffer_append(ptr noundef @.str.35)
  store ptr @.str.36, ptr %18, align 8
  %96 = load ptr, ptr %7, align 8
  %97 = load ptr, ptr %16, align 8
  %98 = load ptr, ptr %18, align 8
  %99 = call ptr @llvm_syscall_asm(ptr noundef %96, ptr noundef %97, ptr noundef %98)
  store ptr %99, ptr %17, align 8
  br label %113

100:                                              ; preds = %91
  %101 = load ptr, ptr %7, align 8
  %102 = load ptr, ptr %16, align 8
  %103 = call ptr @llvm_syscall_asm(ptr noundef %101, ptr noundef %102, ptr noundef @.str.37)
  store ptr %103, ptr %17, align 8
  br label %113

104:                                              ; preds = %68
  call void @scratch_buffer_append(ptr noundef @.str.38)
  %105 = load i32, ptr %10, align 4
  call void @llvm_syscall_write_regs_to_scratch(ptr noundef @llvm_emit_syscall.regs.39, i32 noundef %105)
  call void @scratch_buffer_append(ptr noundef @.str.47)
  %106 = load ptr, ptr %7, align 8
  %107 = load ptr, ptr %16, align 8
  %108 = call ptr @llvm_syscall_asm(ptr noundef %106, ptr noundef %107, ptr noundef @.str.48)
  store ptr %108, ptr %17, align 8
  br label %113

109:                                              ; preds = %68, %68, %68, %68, %68, %68, %68, %68, %68, %68, %68, %68, %68, %68, %68, %68, %68, %68, %68, %68, %68, %68, %68, %68, %68, %68, %68, %68, %68, %68, %68, %68, %68, %68, %68
  br label %110

110:                                              ; preds = %109, %68
  br label %111

111:                                              ; preds = %110
  call void (ptr, ...) @error_exit(ptr noundef @.str, ptr noundef @.str.3, ptr noundef @__func__.llvm_emit_syscall, ptr noundef @.str.2, i32 noundef 326) #9
  unreachable

112:                                              ; No predecessors!
  br label %113

113:                                              ; preds = %112, %104, %100, %95, %81
  %114 = load ptr, ptr %7, align 8
  %115 = getelementptr inbounds %struct.GenContext_, ptr %114, i32 0, i32 8
  %116 = load ptr, ptr %115, align 8
  %117 = load ptr, ptr %16, align 8
  %118 = load ptr, ptr %17, align 8
  %119 = getelementptr inbounds [10 x ptr], ptr %11, i64 0, i64 0
  %120 = load i32, ptr %10, align 4
  %121 = call ptr @LLVMBuildCall2(ptr noundef %116, ptr noundef %117, ptr noundef %118, ptr noundef %119, i32 noundef %120, ptr noundef @.str.48)
  store ptr %121, ptr %19, align 8
  %122 = load ptr, ptr %8, align 8
  %123 = load ptr, ptr %19, align 8
  %124 = load ptr, ptr @type_uptr, align 8
  call void @llvm_value_set(ptr noundef %122, ptr noundef %123, ptr noundef %124)
  ret void
}