; Function Attrs: nounwind uwtable
define internal fastcc void @llvm_emit_syscall(ptr noundef %0, ptr noundef %1, ptr readonly %.40.val) unnamed_addr #0 {
  %3 = alloca [10 x ptr], align 16
  %4 = alloca [10 x ptr], align 16
  %.not = icmp eq ptr %.40.val, null
  br i1 %.not, label %.thread, label %7

.thread:                                          ; preds = %2
  %5 = load ptr, ptr @type_uptr, align 8
  %6 = tail call ptr @llvm_get_type(ptr noundef %0, ptr noundef %5) #8
  br label %._crit_edge

7:                                                ; preds = %2
  %8 = getelementptr inbounds i8, ptr %.40.val, i64 -8
  %9 = load i32, ptr %8, align 4
  %10 = load ptr, ptr @type_uptr, align 8
  %11 = tail call ptr @llvm_get_type(ptr noundef %0, ptr noundef %10) #8
  %.not3 = icmp eq i32 %9, 0
  br i1 %.not3, label %._crit_edge, label %.lr.ph

.lr.ph:                                           ; preds = %7
  %12 = getelementptr inbounds i8, ptr %1, i64 16
  %wide.trip.count = zext i32 %9 to i64
  br label %13

13:                                               ; preds = %.lr.ph, %13
  %indvars.iv = phi i64 [ 0, %.lr.ph ], [ %indvars.iv.next, %13 ]
  %14 = getelementptr inbounds ptr, ptr %.40.val, i64 %indvars.iv
  %15 = load ptr, ptr %14, align 8
  tail call void @llvm_emit_expr(ptr noundef %0, ptr noundef %1, ptr noundef %15) #8
  tail call void @llvm_value_rvalue(ptr noundef %0, ptr noundef %1) #8
  %16 = load ptr, ptr %12, align 8
  %17 = getelementptr inbounds [10 x ptr], ptr %3, i64 0, i64 %indvars.iv
  store ptr %16, ptr %17, align 8
  %18 = getelementptr inbounds [10 x ptr], ptr %4, i64 0, i64 %indvars.iv
  store ptr %11, ptr %18, align 8
  %indvars.iv.next = add nuw nsw i64 %indvars.iv, 1
  %exitcond.not = icmp eq i64 %indvars.iv.next, %wide.trip.count
  br i1 %exitcond.not, label %._crit_edge, label %13, !llvm.loop !24

._crit_edge:                                      ; preds = %13, %.thread, %7
  %.not310 = phi i1 [ true, %.thread ], [ true, %7 ], [ %.not3, %13 ]
  %19 = phi ptr [ %6, %.thread ], [ %11, %7 ], [ %11, %13 ]
  %.08 = phi i32 [ 0, %.thread ], [ 0, %7 ], [ %9, %13 ]
  %20 = call ptr @LLVMFunctionType(ptr noundef %19, ptr noundef nonnull %4, i32 noundef %.08, i32 noundef 0) #8
  call void @scratch_buffer_clear() #8
  %21 = load i32, ptr getelementptr inbounds (%struct.PlatformTarget, ptr @platform_target, i64 0, i32 4), align 8
  switch i32 %21, label %57 [
    i32 3, label %22
    i32 4, label %22
    i32 31, label %35
    i32 32, label %50
  ]

22:                                               ; preds = %._crit_edge, %._crit_edge
  call void @scratch_buffer_append(ptr noundef nonnull @.str.16) #8
  %23 = load i32, ptr getelementptr inbounds (%struct.PlatformTarget, ptr @platform_target, i64 0, i32 5), align 4
  %24 = call zeroext i1 @os_is_apple(i32 noundef %23) #8
  br i1 %24, label %25, label %28

25:                                               ; preds = %22
  br i1 %.not310, label %llvm_syscall_write_regs_to_scratch.exit, label %.lr.ph.preheader.i

.lr.ph.preheader.i:                               ; preds = %25
  %wide.trip.count.i = zext i32 %.08 to i64
  br label %.lr.ph.i

.lr.ph.i:                                         ; preds = %.lr.ph.i, %.lr.ph.preheader.i
  %indvars.iv.i = phi i64 [ 0, %.lr.ph.preheader.i ], [ %indvars.iv.next.i, %.lr.ph.i ]
  call void @scratch_buffer_append(ptr noundef nonnull @.str.49) #8
  %26 = getelementptr inbounds ptr, ptr @llvm_emit_syscall.regs, i64 %indvars.iv.i
  %27 = load ptr, ptr %26, align 8
  call void @scratch_buffer_append(ptr noundef %27) #8
  call void @scratch_buffer_append(ptr noundef nonnull @.str.50) #8
  %indvars.iv.next.i = add nuw nsw i64 %indvars.iv.i, 1
  %exitcond.not.i = icmp eq i64 %indvars.iv.next.i, %wide.trip.count.i
  br i1 %exitcond.not.i, label %llvm_syscall_write_regs_to_scratch.exit, label %.lr.ph.i, !llvm.loop !25

28:                                               ; preds = %22
  br i1 %.not310, label %llvm_syscall_write_regs_to_scratch.exit, label %.lr.ph.preheader.i46

.lr.ph.preheader.i46:                             ; preds = %28
  %wide.trip.count.i47 = zext i32 %.08 to i64
  br label %.lr.ph.i48

.lr.ph.i48:                                       ; preds = %.lr.ph.i48, %.lr.ph.preheader.i46
  %indvars.iv.i49 = phi i64 [ 0, %.lr.ph.preheader.i46 ], [ %indvars.iv.next.i50, %.lr.ph.i48 ]
  call void @scratch_buffer_append(ptr noundef nonnull @.str.49) #8
  %29 = getelementptr inbounds ptr, ptr @llvm_emit_syscall.regs.24, i64 %indvars.iv.i49
  %30 = load ptr, ptr %29, align 8
  call void @scratch_buffer_append(ptr noundef %30) #8
  call void @scratch_buffer_append(ptr noundef nonnull @.str.50) #8
  %indvars.iv.next.i50 = add nuw nsw i64 %indvars.iv.i49, 1
  %exitcond.not.i51 = icmp eq i64 %indvars.iv.next.i50, %wide.trip.count.i47
  br i1 %exitcond.not.i51, label %llvm_syscall_write_regs_to_scratch.exit, label %.lr.ph.i48, !llvm.loop !25

llvm_syscall_write_regs_to_scratch.exit:          ; preds = %.lr.ph.i48, %.lr.ph.i, %28, %25
  %31 = call ptr @scratch_buffer_to_string() #8
  %32 = load i32, ptr getelementptr inbounds (%struct.ScratchBuf, ptr @scratch_buffer, i64 0, i32 1), align 4
  %33 = zext i32 %32 to i64
  %34 = call ptr @LLVMGetInlineAsm(ptr noundef %20, ptr noundef nonnull @.str.26, i64 noundef 9, ptr noundef %31, i64 noundef %33, i32 noundef 1, i32 noundef 1, i32 noundef 0, i32 noundef 0) #8
  br label %58

35:                                               ; preds = %._crit_edge
  call void @scratch_buffer_append(ptr noundef nonnull @.str.27) #8
  br i1 %.not310, label %45, label %.lr.ph.preheader.i54

.lr.ph.preheader.i54:                             ; preds = %35
  %36 = call i32 @llvm.umin.i32(i32 %.08, i32 6)
  %wide.trip.count.i55 = zext nneg i32 %36 to i64
  br label %.lr.ph.i56

.lr.ph.i56:                                       ; preds = %.lr.ph.i56, %.lr.ph.preheader.i54
  %indvars.iv.i57 = phi i64 [ 0, %.lr.ph.preheader.i54 ], [ %indvars.iv.next.i58, %.lr.ph.i56 ]
  call void @scratch_buffer_append(ptr noundef nonnull @.str.49) #8
  %37 = getelementptr inbounds ptr, ptr @llvm_emit_syscall.regs.28, i64 %indvars.iv.i57
  %38 = load ptr, ptr %37, align 8
  call void @scratch_buffer_append(ptr noundef %38) #8
  call void @scratch_buffer_append(ptr noundef nonnull @.str.50) #8
  %indvars.iv.next.i58 = add nuw nsw i64 %indvars.iv.i57, 1
  %exitcond.not.i59 = icmp eq i64 %indvars.iv.next.i58, %wide.trip.count.i55
  br i1 %exitcond.not.i59, label %llvm_syscall_write_regs_to_scratch.exit60, label %.lr.ph.i56, !llvm.loop !25

llvm_syscall_write_regs_to_scratch.exit60:        ; preds = %.lr.ph.i56
  %39 = icmp eq i32 %.08, 7
  br i1 %39, label %40, label %45

40:                                               ; preds = %llvm_syscall_write_regs_to_scratch.exit60
  call void @scratch_buffer_append(ptr noundef nonnull @.str.35) #8
  %41 = call ptr @scratch_buffer_to_string() #8
  %42 = load i32, ptr getelementptr inbounds (%struct.ScratchBuf, ptr @scratch_buffer, i64 0, i32 1), align 4
  %43 = zext i32 %42 to i64
  %44 = call ptr @LLVMGetInlineAsm(ptr noundef %20, ptr noundef nonnull @.str.36, i64 noundef 77, ptr noundef %41, i64 noundef %43, i32 noundef 1, i32 noundef 1, i32 noundef 0, i32 noundef 0) #8
  br label %58

45:                                               ; preds = %35, %llvm_syscall_write_regs_to_scratch.exit60
  %46 = call ptr @scratch_buffer_to_string() #8
  %47 = load i32, ptr getelementptr inbounds (%struct.ScratchBuf, ptr @scratch_buffer, i64 0, i32 1), align 4
  %48 = zext i32 %47 to i64
  %49 = call ptr @LLVMGetInlineAsm(ptr noundef %20, ptr noundef nonnull @.str.37, i64 noundef 9, ptr noundef %46, i64 noundef %48, i32 noundef 1, i32 noundef 1, i32 noundef 0, i32 noundef 0) #8
  br label %58

50:                                               ; preds = %._crit_edge
  call void @scratch_buffer_append(ptr noundef nonnull @.str.38) #8
  br i1 %.not310, label %llvm_syscall_write_regs_to_scratch.exit68, label %.lr.ph.preheader.i62

.lr.ph.preheader.i62:                             ; preds = %50
  %wide.trip.count.i63 = zext i32 %.08 to i64
  br label %.lr.ph.i64

.lr.ph.i64:                                       ; preds = %.lr.ph.i64, %.lr.ph.preheader.i62
  %indvars.iv.i65 = phi i64 [ 0, %.lr.ph.preheader.i62 ], [ %indvars.iv.next.i66, %.lr.ph.i64 ]
  call void @scratch_buffer_append(ptr noundef nonnull @.str.49) #8
  %51 = getelementptr inbounds ptr, ptr @llvm_emit_syscall.regs.39, i64 %indvars.iv.i65
  %52 = load ptr, ptr %51, align 8
  call void @scratch_buffer_append(ptr noundef %52) #8
  call void @scratch_buffer_append(ptr noundef nonnull @.str.50) #8
  %indvars.iv.next.i66 = add nuw nsw i64 %indvars.iv.i65, 1
  %exitcond.not.i67 = icmp eq i64 %indvars.iv.next.i66, %wide.trip.count.i63
  br i1 %exitcond.not.i67, label %llvm_syscall_write_regs_to_scratch.exit68, label %.lr.ph.i64, !llvm.loop !25

llvm_syscall_write_regs_to_scratch.exit68:        ; preds = %.lr.ph.i64, %50
  call void @scratch_buffer_append(ptr noundef nonnull @.str.47) #8
  %53 = call ptr @scratch_buffer_to_string() #8
  %54 = load i32, ptr getelementptr inbounds (%struct.ScratchBuf, ptr @scratch_buffer, i64 0, i32 1), align 4
  %55 = zext i32 %54 to i64
  %56 = call ptr @LLVMGetInlineAsm(ptr noundef %20, ptr noundef nonnull @.str.48, i64 noundef 7, ptr noundef %53, i64 noundef %55, i32 noundef 1, i32 noundef 1, i32 noundef 0, i32 noundef 0) #8
  br label %58

57:                                               ; preds = %._crit_edge
  call void (ptr, ...) @error_exit(ptr noundef nonnull @.str, ptr noundef nonnull @.str.3, ptr noundef nonnull @__func__.llvm_emit_syscall, ptr noundef nonnull @.str.2, i32 noundef 326) #9
  unreachable

58:                                               ; preds = %llvm_syscall_write_regs_to_scratch.exit68, %45, %40, %llvm_syscall_write_regs_to_scratch.exit
  %.09 = phi i32 [ %.08, %llvm_syscall_write_regs_to_scratch.exit68 ], [ 7, %40 ], [ %.08, %45 ], [ %.08, %llvm_syscall_write_regs_to_scratch.exit ]
  %.043 = phi ptr [ %56, %llvm_syscall_write_regs_to_scratch.exit68 ], [ %44, %40 ], [ %49, %45 ], [ %34, %llvm_syscall_write_regs_to_scratch.exit ]
  %59 = getelementptr inbounds i8, ptr %0, i64 64
  %60 = load ptr, ptr %59, align 8
  %61 = call ptr @LLVMBuildCall2(ptr noundef %60, ptr noundef %20, ptr noundef %.043, ptr noundef nonnull %3, i32 noundef %.09, ptr noundef nonnull @.str.48) #8
  %62 = load ptr, ptr @type_uptr, align 8
  call void @llvm_value_set(ptr noundef %1, ptr noundef %61, ptr noundef %62) #8
  ret void
}